; ModuleID = '27/1986.c'
source_filename = "27/1986.c"
target datalayout = "e-m:e-p270:32:32-p271:32:32-p272:64:64-i64:64-f80:128-n8:16:32:64-S128"
target triple = "x86_64-pc-linux-gnu"

@.str = private unnamed_addr constant [3 x i8] c"%d\00", align 1
@.str.1 = private unnamed_addr constant [4 x i8] c"%lf\00", align 1
@.str.2 = private unnamed_addr constant [13 x i8] c"x1=x2=%.5lf\0A\00", align 1
@.str.3 = private unnamed_addr constant [19 x i8] c"x1=%.5lf;x2=%.5lf\0A\00", align 1
@.str.4 = private unnamed_addr constant [33 x i8] c"x1=%.5lf+%.5lfi;x2=%.5lf-%.5lfi\0A\00", align 1

; Function Attrs: noinline nounwind uwtable
define dso_local i32 @main() #0 {
  %1 = alloca i32, align 4
  %2 = alloca i32, align 4
  %3 = alloca i32, align 4
  %4 = alloca i32, align 4
  %5 = alloca [100 x [3 x double]], align 16
  %6 = alloca double, align 8
  store i32 0, i32* %1, align 4
  %7 = call i32 (i8*, ...) @__isoc99_scanf(i8* getelementptr inbounds ([3 x i8], [3 x i8]* @.str, i64 0, i64 0), i32* %2)
  store i32 0, i32* %3, align 4
  br label %8

8:                                                ; preds = %28, %0
  %9 = load i32, i32* %3, align 4
  %10 = load i32, i32* %2, align 4
  %11 = icmp slt i32 %9, %10
  br i1 %11, label %12, label %31

12:                                               ; preds = %8
  store i32 0, i32* %4, align 4
  br label %13

13:                                               ; preds = %24, %12
  %14 = load i32, i32* %4, align 4
  %15 = icmp slt i32 %14, 3
  br i1 %15, label %16, label %27

16:                                               ; preds = %13
  %17 = load i32, i32* %3, align 4
  %18 = sext i32 %17 to i64
  %19 = getelementptr inbounds [100 x [3 x double]], [100 x [3 x double]]* %5, i64 0, i64 %18
  %20 = load i32, i32* %4, align 4
  %21 = sext i32 %20 to i64
  %22 = getelementptr inbounds [3 x double], [3 x double]* %19, i64 0, i64 %21
  %23 = call i32 (i8*, ...) @__isoc99_scanf(i8* getelementptr inbounds ([4 x i8], [4 x i8]* @.str.1, i64 0, i64 0), double* %22)
  br label %24

24:                                               ; preds = %16
  %25 = load i32, i32* %4, align 4
  %26 = add nsw i32 %25, 1
  store i32 %26, i32* %4, align 4
  br label %13

27:                                               ; preds = %13
  br label %28

28:                                               ; preds = %27
  %29 = load i32, i32* %3, align 4
  %30 = add nsw i32 %29, 1
  store i32 %30, i32* %3, align 4
  br label %8

31:                                               ; preds = %8
  store i32 0, i32* %3, align 4
  br label %32

32:                                               ; preds = %289, %31
  %33 = load i32, i32* %3, align 4
  %34 = load i32, i32* %2, align 4
  %35 = icmp slt i32 %33, %34
  br i1 %35, label %36, label %292

36:                                               ; preds = %32
  %37 = load i32, i32* %3, align 4
  %38 = sext i32 %37 to i64
  %39 = getelementptr inbounds [100 x [3 x double]], [100 x [3 x double]]* %5, i64 0, i64 %38
  %40 = getelementptr inbounds [3 x double], [3 x double]* %39, i64 0, i64 1
  %41 = load double, double* %40, align 8
  %42 = fneg double %41
  %43 = load i32, i32* %3, align 4
  %44 = sext i32 %43 to i64
  %45 = getelementptr inbounds [100 x [3 x double]], [100 x [3 x double]]* %5, i64 0, i64 %44
  %46 = getelementptr inbounds [3 x double], [3 x double]* %45, i64 0, i64 0
  %47 = load double, double* %46, align 8
  %48 = fmul double 2.000000e+00, %47
  %49 = fdiv double %42, %48
  store double %49, double* %6, align 8
  %50 = load i32, i32* %3, align 4
  %51 = sext i32 %50 to i64
  %52 = getelementptr inbounds [100 x [3 x double]], [100 x [3 x double]]* %5, i64 0, i64 %51
  %53 = getelementptr inbounds [3 x double], [3 x double]* %52, i64 0, i64 1
  %54 = load double, double* %53, align 8
  %55 = fcmp oeq double %54, 0.000000e+00
  br i1 %55, label %56, label %57

56:                                               ; preds = %36
  store double 0.000000e+00, double* %6, align 8
  br label %57

57:                                               ; preds = %56, %36
  %58 = load i32, i32* %3, align 4
  %59 = sext i32 %58 to i64
  %60 = getelementptr inbounds [100 x [3 x double]], [100 x [3 x double]]* %5, i64 0, i64 %59
  %61 = getelementptr inbounds [3 x double], [3 x double]* %60, i64 0, i64 1
  %62 = load double, double* %61, align 8
  %63 = load i32, i32* %3, align 4
  %64 = sext i32 %63 to i64
  %65 = getelementptr inbounds [100 x [3 x double]], [100 x [3 x double]]* %5, i64 0, i64 %64
  %66 = getelementptr inbounds [3 x double], [3 x double]* %65, i64 0, i64 1
  %67 = load double, double* %66, align 8
  %68 = fmul double %62, %67
  %69 = load i32, i32* %3, align 4
  %70 = sext i32 %69 to i64
  %71 = getelementptr inbounds [100 x [3 x double]], [100 x [3 x double]]* %5, i64 0, i64 %70
  %72 = getelementptr inbounds [3 x double], [3 x double]* %71, i64 0, i64 0
  %73 = load double, double* %72, align 8
  %74 = fmul double 4.000000e+00, %73
  %75 = load i32, i32* %3, align 4
  %76 = sext i32 %75 to i64
  %77 = getelementptr inbounds [100 x [3 x double]], [100 x [3 x double]]* %5, i64 0, i64 %76
  %78 = getelementptr inbounds [3 x double], [3 x double]* %77, i64 0, i64 2
  %79 = load double, double* %78, align 8
  %80 = fmul double %74, %79
  %81 = fsub double %68, %80
  %82 = fcmp oeq double %81, 0.000000e+00
  br i1 %82, label %83, label %86

83:                                               ; preds = %57
  %84 = load double, double* %6, align 8
  %85 = call i32 (i8*, ...) @printf(i8* getelementptr inbounds ([13 x i8], [13 x i8]* @.str.2, i64 0, i64 0), double %84)
  br label %288

86:                                               ; preds = %57
  %87 = load i32, i32* %3, align 4
  %88 = sext i32 %87 to i64
  %89 = getelementptr inbounds [100 x [3 x double]], [100 x [3 x double]]* %5, i64 0, i64 %88
  %90 = getelementptr inbounds [3 x double], [3 x double]* %89, i64 0, i64 1
  %91 = load double, double* %90, align 8
  %92 = load i32, i32* %3, align 4
  %93 = sext i32 %92 to i64
  %94 = getelementptr inbounds [100 x [3 x double]], [100 x [3 x double]]* %5, i64 0, i64 %93
  %95 = getelementptr inbounds [3 x double], [3 x double]* %94, i64 0, i64 1
  %96 = load double, double* %95, align 8
  %97 = fmul double %91, %96
  %98 = load i32, i32* %3, align 4
  %99 = sext i32 %98 to i64
  %100 = getelementptr inbounds [100 x [3 x double]], [100 x [3 x double]]* %5, i64 0, i64 %99
  %101 = getelementptr inbounds [3 x double], [3 x double]* %100, i64 0, i64 0
  %102 = load double, double* %101, align 8
  %103 = fmul double 4.000000e+00, %102
  %104 = load i32, i32* %3, align 4
  %105 = sext i32 %104 to i64
  %106 = getelementptr inbounds [100 x [3 x double]], [100 x [3 x double]]* %5, i64 0, i64 %105
  %107 = getelementptr inbounds [3 x double], [3 x double]* %106, i64 0, i64 2
  %108 = load double, double* %107, align 8
  %109 = fmul double %103, %108
  %110 = fsub double %97, %109
  %111 = fcmp ogt double %110, 0.000000e+00
  br i1 %111, label %112, label %192

112:                                              ; preds = %86
  %113 = load i32, i32* %3, align 4
  %114 = sext i32 %113 to i64
  %115 = getelementptr inbounds [100 x [3 x double]], [100 x [3 x double]]* %5, i64 0, i64 %114
  %116 = getelementptr inbounds [3 x double], [3 x double]* %115, i64 0, i64 1
  %117 = load double, double* %116, align 8
  %118 = fneg double %117
  %119 = load i32, i32* %3, align 4
  %120 = sext i32 %119 to i64
  %121 = getelementptr inbounds [100 x [3 x double]], [100 x [3 x double]]* %5, i64 0, i64 %120
  %122 = getelementptr inbounds [3 x double], [3 x double]* %121, i64 0, i64 1
  %123 = load double, double* %122, align 8
  %124 = load i32, i32* %3, align 4
  %125 = sext i32 %124 to i64
  %126 = getelementptr inbounds [100 x [3 x double]], [100 x [3 x double]]* %5, i64 0, i64 %125
  %127 = getelementptr inbounds [3 x double], [3 x double]* %126, i64 0, i64 1
  %128 = load double, double* %127, align 8
  %129 = fmul double %123, %128
  %130 = load i32, i32* %3, align 4
  %131 = sext i32 %130 to i64
  %132 = getelementptr inbounds [100 x [3 x double]], [100 x [3 x double]]* %5, i64 0, i64 %131
  %133 = getelementptr inbounds [3 x double], [3 x double]* %132, i64 0, i64 0
  %134 = load double, double* %133, align 8
  %135 = fmul double 4.000000e+00, %134
  %136 = load i32, i32* %3, align 4
  %137 = sext i32 %136 to i64
  %138 = getelementptr inbounds [100 x [3 x double]], [100 x [3 x double]]* %5, i64 0, i64 %137
  %139 = getelementptr inbounds [3 x double], [3 x double]* %138, i64 0, i64 2
  %140 = load double, double* %139, align 8
  %141 = fmul double %135, %140
  %142 = fsub double %129, %141
  %143 = call double @sqrt(double %142) #3
  %144 = fadd double %118, %143
  %145 = load i32, i32* %3, align 4
  %146 = sext i32 %145 to i64
  %147 = getelementptr inbounds [100 x [3 x double]], [100 x [3 x double]]* %5, i64 0, i64 %146
  %148 = getelementptr inbounds [3 x double], [3 x double]* %147, i64 0, i64 0
  %149 = load double, double* %148, align 8
  %150 = fmul double 2.000000e+00, %149
  %151 = fdiv double %144, %150
  %152 = load i32, i32* %3, align 4
  %153 = sext i32 %152 to i64
  %154 = getelementptr inbounds [100 x [3 x double]], [100 x [3 x double]]* %5, i64 0, i64 %153
  %155 = getelementptr inbounds [3 x double], [3 x double]* %154, i64 0, i64 1
  %156 = load double, double* %155, align 8
  %157 = fneg double %156
  %158 = load i32, i32* %3, align 4
  %159 = sext i32 %158 to i64
  %160 = getelementptr inbounds [100 x [3 x double]], [100 x [3 x double]]* %5, i64 0, i64 %159
  %161 = getelementptr inbounds [3 x double], [3 x double]* %160, i64 0, i64 1
  %162 = load double, double* %161, align 8
  %163 = load i32, i32* %3, align 4
  %164 = sext i32 %163 to i64
  %165 = getelementptr inbounds [100 x [3 x double]], [100 x [3 x double]]* %5, i64 0, i64 %164
  %166 = getelementptr inbounds [3 x double], [3 x double]* %165, i64 0, i64 1
  %167 = load double, double* %166, align 8
  %168 = fmul double %162, %167
  %169 = load i32, i32* %3, align 4
  %170 = sext i32 %169 to i64
  %171 = getelementptr inbounds [100 x [3 x double]], [100 x [3 x double]]* %5, i64 0, i64 %170
  %172 = getelementptr inbounds [3 x double], [3 x double]* %171, i64 0, i64 0
  %173 = load double, double* %172, align 8
  %174 = fmul double 4.000000e+00, %173
  %175 = load i32, i32* %3, align 4
  %176 = sext i32 %175 to i64
  %177 = getelementptr inbounds [100 x [3 x double]], [100 x [3 x double]]* %5, i64 0, i64 %176
  %178 = getelementptr inbounds [3 x double], [3 x double]* %177, i64 0, i64 2
  %179 = load double, double* %178, align 8
  %180 = fmul double %174, %179
  %181 = fsub double %168, %180
  %182 = call double @sqrt(double %181) #3
  %183 = fsub double %157, %182
  %184 = load i32, i32* %3, align 4
  %185 = sext i32 %184 to i64
  %186 = getelementptr inbounds [100 x [3 x double]], [100 x [3 x double]]* %5, i64 0, i64 %185
  %187 = getelementptr inbounds [3 x double], [3 x double]* %186, i64 0, i64 0
  %188 = load double, double* %187, align 8
  %189 = fmul double 2.000000e+00, %188
  %190 = fdiv double %183, %189
  %191 = call i32 (i8*, ...) @printf(i8* getelementptr inbounds ([19 x i8], [19 x i8]* @.str.3, i64 0, i64 0), double %151, double %190)
  br label %287

192:                                              ; preds = %86
  %193 = load i32, i32* %3, align 4
  %194 = sext i32 %193 to i64
  %195 = getelementptr inbounds [100 x [3 x double]], [100 x [3 x double]]* %5, i64 0, i64 %194
  %196 = getelementptr inbounds [3 x double], [3 x double]* %195, i64 0, i64 1
  %197 = load double, double* %196, align 8
  %198 = load i32, i32* %3, align 4
  %199 = sext i32 %198 to i64
  %200 = getelementptr inbounds [100 x [3 x double]], [100 x [3 x double]]* %5, i64 0, i64 %199
  %201 = getelementptr inbounds [3 x double], [3 x double]* %200, i64 0, i64 1
  %202 = load double, double* %201, align 8
  %203 = fmul double %197, %202
  %204 = load i32, i32* %3, align 4
  %205 = sext i32 %204 to i64
  %206 = getelementptr inbounds [100 x [3 x double]], [100 x [3 x double]]* %5, i64 0, i64 %205
  %207 = getelementptr inbounds [3 x double], [3 x double]* %206, i64 0, i64 0
  %208 = load double, double* %207, align 8
  %209 = fmul double 4.000000e+00, %208
  %210 = load i32, i32* %3, align 4
  %211 = sext i32 %210 to i64
  %212 = getelementptr inbounds [100 x [3 x double]], [100 x [3 x double]]* %5, i64 0, i64 %211
  %213 = getelementptr inbounds [3 x double], [3 x double]* %212, i64 0, i64 2
  %214 = load double, double* %213, align 8
  %215 = fmul double %209, %214
  %216 = fsub double %203, %215
  %217 = fcmp olt double %216, 0.000000e+00
  br i1 %217, label %218, label %286

218:                                              ; preds = %192
  %219 = load double, double* %6, align 8
  %220 = load i32, i32* %3, align 4
  %221 = sext i32 %220 to i64
  %222 = getelementptr inbounds [100 x [3 x double]], [100 x [3 x double]]* %5, i64 0, i64 %221
  %223 = getelementptr inbounds [3 x double], [3 x double]* %222, i64 0, i64 0
  %224 = load double, double* %223, align 8
  %225 = fmul double 4.000000e+00, %224
  %226 = load i32, i32* %3, align 4
  %227 = sext i32 %226 to i64
  %228 = getelementptr inbounds [100 x [3 x double]], [100 x [3 x double]]* %5, i64 0, i64 %227
  %229 = getelementptr inbounds [3 x double], [3 x double]* %228, i64 0, i64 2
  %230 = load double, double* %229, align 8
  %231 = fmul double %225, %230
  %232 = load i32, i32* %3, align 4
  %233 = sext i32 %232 to i64
  %234 = getelementptr inbounds [100 x [3 x double]], [100 x [3 x double]]* %5, i64 0, i64 %233
  %235 = getelementptr inbounds [3 x double], [3 x double]* %234, i64 0, i64 1
  %236 = load double, double* %235, align 8
  %237 = load i32, i32* %3, align 4
  %238 = sext i32 %237 to i64
  %239 = getelementptr inbounds [100 x [3 x double]], [100 x [3 x double]]* %5, i64 0, i64 %238
  %240 = getelementptr inbounds [3 x double], [3 x double]* %239, i64 0, i64 1
  %241 = load double, double* %240, align 8
  %242 = fmul double %236, %241
  %243 = fsub double %231, %242
  %244 = call double @sqrt(double %243) #3
  %245 = load i32, i32* %3, align 4
  %246 = sext i32 %245 to i64
  %247 = getelementptr inbounds [100 x [3 x double]], [100 x [3 x double]]* %5, i64 0, i64 %246
  %248 = getelementptr inbounds [3 x double], [3 x double]* %247, i64 0, i64 0
  %249 = load double, double* %248, align 8
  %250 = fmul double 2.000000e+00, %249
  %251 = fdiv double %244, %250
  %252 = load double, double* %6, align 8
  %253 = load i32, i32* %3, align 4
  %254 = sext i32 %253 to i64
  %255 = getelementptr inbounds [100 x [3 x double]], [100 x [3 x double]]* %5, i64 0, i64 %254
  %256 = getelementptr inbounds [3 x double], [3 x double]* %255, i64 0, i64 0
  %257 = load double, double* %256, align 8
  %258 = fmul double 4.000000e+00, %257
  %259 = load i32, i32* %3, align 4
  %260 = sext i32 %259 to i64
  %261 = getelementptr inbounds [100 x [3 x double]], [100 x [3 x double]]* %5, i64 0, i64 %260
  %262 = getelementptr inbounds [3 x double], [3 x double]* %261, i64 0, i64 2
  %263 = load double, double* %262, align 8
  %264 = fmul double %258, %263
  %265 = load i32, i32* %3, align 4
  %266 = sext i32 %265 to i64
  %267 = getelementptr inbounds [100 x [3 x double]], [100 x [3 x double]]* %5, i64 0, i64 %266
  %268 = getelementptr inbounds [3 x double], [3 x double]* %267, i64 0, i64 1
  %269 = load double, double* %268, align 8
  %270 = load i32, i32* %3, align 4
  %271 = sext i32 %270 to i64
  %272 = getelementptr inbounds [100 x [3 x double]], [100 x [3 x double]]* %5, i64 0, i64 %271
  %273 = getelementptr inbounds [3 x double], [3 x double]* %272, i64 0, i64 1
  %274 = load double, double* %273, align 8
  %275 = fmul double %269, %274
  %276 = fsub double %264, %275
  %277 = call double @sqrt(double %276) #3
  %278 = load i32, i32* %3, align 4
  %279 = sext i32 %278 to i64
  %280 = getelementptr inbounds [100 x [3 x double]], [100 x [3 x double]]* %5, i64 0, i64 %279
  %281 = getelementptr inbounds [3 x double], [3 x double]* %280, i64 0, i64 0
  %282 = load double, double* %281, align 8
  %283 = fmul double 2.000000e+00, %282
  %284 = fdiv double %277, %283
  %285 = call i32 (i8*, ...) @printf(i8* getelementptr inbounds ([33 x i8], [33 x i8]* @.str.4, i64 0, i64 0), double %219, double %251, double %252, double %284)
  br label %286

286:                                              ; preds = %218, %192
  br label %287

287:                                              ; preds = %286, %112
  br label %288

288:                                              ; preds = %287, %83
  br label %289

289:                                              ; preds = %288
  %290 = load i32, i32* %3, align 4
  %291 = add nsw i32 %290, 1
  store i32 %291, i32* %3, align 4
  br label %32

292:                                              ; preds = %32
  ret i32 0
}

declare dso_local i32 @__isoc99_scanf(i8*, ...) #1

declare dso_local i32 @printf(i8*, ...) #1

; Function Attrs: nounwind
declare dso_local double @sqrt(double) #2


!llvm.module.flags = !{!0}
!llvm.ident = !{!1}

!0 = !{i32 1, !"wchar_size", i32 4}
!1 = !{!"clang version 10.0.0-4ubuntu1 "}
